; Function Attrs: mustprogress uwtable
define hidden void @_ZN3smt24theory_special_relations14init_model_ploERNS0_8relationERNS_15model_generatorE(ptr nocapture noundef nonnull readonly align 8 dereferenceable(145) %this, ptr noundef nonnull align 8 dereferenceable(552) %r, ptr nocapture noundef nonnull readonly align 8 dereferenceable(104) %mg) local_unnamed_addr #3 align 2 personality ptr @__gxx_personality_v0 {
entry:
  %inj = alloca %class.obj_ref.96, align 8
  %cls = alloca %class.obj_ref.96, align 8
  call void @_ZN3smt24theory_special_relations6mk_injERNS0_8relationERNS_15model_generatorE(ptr nonnull sret(%class.obj_ref.96) align 8 %inj, ptr noundef nonnull align 8 dereferenceable(145) %this, ptr noundef nonnull align 8 dereferenceable(552) %r, ptr noundef nonnull align 8 dereferenceable(104) %mg)
  invoke void @_ZN3smt24theory_special_relations8mk_classERNS0_8relationERNS_15model_generatorE(ptr nonnull sret(%class.obj_ref.96) align 8 %cls, ptr noundef nonnull align 8 dereferenceable(145) %this, ptr noundef nonnull align 8 dereferenceable(552) %r, ptr noundef nonnull align 8 dereferenceable(104) %mg)
          to label %invoke.cont unwind label %lpad

invoke.cont:                                      ; preds = %entry
  %call = invoke noalias noundef ptr @_ZN6memory8allocateEm(i64 noundef 56)
          to label %invoke.cont3 unwind label %lpad2

invoke.cont3:                                     ; preds = %invoke.cont
  %m.i = getelementptr inbounds i8, ptr %this, i64 24
  %0 = load ptr, ptr %m.i, align 8
  invoke void @_ZN11func_interpC1ER11ast_managerj(ptr noundef nonnull align 8 dereferenceable(56) %call, ptr noundef nonnull align 8 dereferenceable(976) %0, i32 noundef 2)
          to label %invoke.cont6 unwind label %lpad2

invoke.cont6:                                     ; preds = %invoke.cont3
  %1 = load ptr, ptr %m.i, align 8
  %2 = load ptr, ptr %inj, align 8
  %3 = load ptr, ptr %cls, align 8
  %call.i8 = invoke noundef ptr @_ZN11ast_manager6mk_appEiiP4exprS1_(ptr noundef nonnull align 8 dereferenceable(976) %1, i32 noundef 0, i32 noundef 5, ptr noundef %2, ptr noundef %3)
          to label %invoke.cont13 unwind label %lpad2

invoke.cont13:                                    ; preds = %invoke.cont6
  invoke void @_ZN11func_interp8set_elseEP4expr(ptr noundef nonnull align 8 dereferenceable(56) %call, ptr noundef %call.i8)
          to label %invoke.cont16 unwind label %lpad2

invoke.cont16:                                    ; preds = %invoke.cont13
  %m_model.i = getelementptr inbounds i8, ptr %mg, i64 72
  %4 = load ptr, ptr %m_model.i, align 8
  %m_decl.i = getelementptr inbounds i8, ptr %r, i64 32
  %5 = load ptr, ptr %m_decl.i, align 8
  invoke void @_ZN10model_core13register_declEP9func_declP11func_interp(ptr noundef nonnull align 8 dereferenceable(96) %4, ptr noundef %5, ptr noundef nonnull %call)
          to label %invoke.cont20 unwind label %lpad2

invoke.cont20:                                    ; preds = %invoke.cont16
  %6 = load ptr, ptr %cls, align 8
  %tobool.not.i.i = icmp eq ptr %6, null
  br i1 %tobool.not.i.i, label %_ZN7obj_refI4expr11ast_managerED2Ev.exit, label %if.then.i.i.i

if.then.i.i.i:                                    ; preds = %invoke.cont20
  %m_manager.i.i = getelementptr inbounds i8, ptr %cls, i64 8
  %7 = load ptr, ptr %m_manager.i.i, align 8
  %m_ref_count.i.i.i.i = getelementptr inbounds i8, ptr %6, i64 8
  %8 = load i32, ptr %m_ref_count.i.i.i.i, align 4
  %dec.i.i.i.i = add i32 %8, -1
  store i32 %dec.i.i.i.i, ptr %m_ref_count.i.i.i.i, align 4
  %cmp.i.i.i = icmp eq i32 %dec.i.i.i.i, 0
  br i1 %cmp.i.i.i, label %if.then2.i.i.i, label %_ZN7obj_refI4expr11ast_managerED2Ev.exit

if.then2.i.i.i:                                   ; preds = %if.then.i.i.i
  invoke void @_ZN11ast_manager11delete_nodeEP3ast(ptr noundef nonnull align 8 dereferenceable(976) %7, ptr noundef nonnull %6)
          to label %_ZN7obj_refI4expr11ast_managerED2Ev.exit unwind label %terminate.lpad.i

terminate.lpad.i:                                 ; preds = %if.then2.i.i.i
  %9 = landingpad { ptr, i32 }
          catch ptr null
  %10 = extractvalue { ptr, i32 } %9, 0
  call void @__clang_call_terminate(ptr %10) #21
  unreachable

_ZN7obj_refI4expr11ast_managerED2Ev.exit:         ; preds = %invoke.cont20, %if.then.i.i.i, %if.then2.i.i.i
  %11 = load ptr, ptr %inj, align 8
  %tobool.not.i.i9 = icmp eq ptr %11, null
  br i1 %tobool.not.i.i9, label %_ZN7obj_refI4expr11ast_managerED2Ev.exit17, label %if.then.i.i.i10

if.then.i.i.i10:                                  ; preds = %_ZN7obj_refI4expr11ast_managerED2Ev.exit
  %m_manager.i.i11 = getelementptr inbounds i8, ptr %inj, i64 8
  %12 = load ptr, ptr %m_manager.i.i11, align 8
  %m_ref_count.i.i.i.i12 = getelementptr inbounds i8, ptr %11, i64 8
  %13 = load i32, ptr %m_ref_count.i.i.i.i12, align 4
  %dec.i.i.i.i13 = add i32 %13, -1
  store i32 %dec.i.i.i.i13, ptr %m_ref_count.i.i.i.i12, align 4
  %cmp.i.i.i14 = icmp eq i32 %dec.i.i.i.i13, 0
  br i1 %cmp.i.i.i14, label %if.then2.i.i.i15, label %_ZN7obj_refI4expr11ast_managerED2Ev.exit17

if.then2.i.i.i15:                                 ; preds = %if.then.i.i.i10
  invoke void @_ZN11ast_manager11delete_nodeEP3ast(ptr noundef nonnull align 8 dereferenceable(976) %12, ptr noundef nonnull %11)
          to label %_ZN7obj_refI4expr11ast_managerED2Ev.exit17 unwind label %terminate.lpad.i16

terminate.lpad.i16:                               ; preds = %if.then2.i.i.i15
  %14 = landingpad { ptr, i32 }
          catch ptr null
  %15 = extractvalue { ptr, i32 } %14, 0
  call void @__clang_call_terminate(ptr %15) #21
  unreachable

_ZN7obj_refI4expr11ast_managerED2Ev.exit17:       ; preds = %_ZN7obj_refI4expr11ast_managerED2Ev.exit, %if.then.i.i.i10, %if.then2.i.i.i15
  ret void

lpad:                                             ; preds = %entry
  %16 = landingpad { ptr, i32 }
          cleanup
  br label %ehcleanup

lpad2:                                            ; preds = %invoke.cont6, %invoke.cont16, %invoke.cont13, %invoke.cont3, %invoke.cont
  %17 = landingpad { ptr, i32 }
          cleanup
  call void @_ZN7obj_refI4expr11ast_managerED2Ev(ptr noundef nonnull align 8 dereferenceable(16) %cls) #22
  br label %ehcleanup

ehcleanup:                                        ; preds = %lpad2, %lpad
  %.pn = phi { ptr, i32 } [ %17, %lpad2 ], [ %16, %lpad ]
  call void @_ZN7obj_refI4expr11ast_managerED2Ev(ptr noundef nonnull align 8 dereferenceable(16) %inj) #22
  resume { ptr, i32 } %.pn
}